target datalayout = "e-m:e-p270:32:32-p271:32:32-p272:64:64-i64:64-i128:128-f80:128-n8:16:32:64-S128"
target triple = "x86_64-pc-linux-gnu"

%class.PhaseValues = type { %class.PhaseTransform, i8, ptr, ptr, [137 x ptr], [137 x ptr], [20 x ptr] }
%class.PhaseTransform = type { ptr, %class.Phase }
%class.Phase = type { i32, ptr }
%class.Node = type <{ ptr, ptr, ptr, i32, i32, i32, i32, i32, i32, i32, [4 x i8] }>
%class.TypeInteger.base = type { %class.Type.base, i16 }
%class.Type.base = type <{ ptr, ptr, i32 }>
%class.TypeInteger = type { %class.Type.base, i16, [2 x i8] }
%class.TypeLong = type { %class.TypeInteger.base, i64, i64 }
%class.Type_Array = type { ptr, i32, ptr }

@_ZN4Type3TOPE = external global ptr, align 8
@_ZN4Type6BOTTOME = external global ptr, align 8
@_ZN8TypeLong3ONEE = external global ptr, align 8
@_ZN8TypeLong4LONGE = external global ptr, align 8

; Function Attrs: mustprogress nounwind uwtable
define linkonce_odr hidden noundef ptr @_ZNK10Type_Array11fast_lookupEj(ptr noundef nonnull align 8 dereferenceable(24) %0, i32 noundef %1) #1 comdat align 2 {
  %3 = alloca ptr, align 8
  %4 = alloca i32, align 4
  store ptr %0, ptr %3, align 8
  store i32 %1, ptr %4, align 4
  %5 = load ptr, ptr %3, align 8
  %6 = getelementptr inbounds %class.Type_Array, ptr %5, i32 0, i32 2
  %7 = load ptr, ptr %6, align 8
  %8 = load i32, ptr %4, align 4
  %9 = zext i32 %8 to i64
  %10 = getelementptr inbounds ptr, ptr %7, i64 %9
  %11 = load ptr, ptr %10, align 8
  ret ptr %11
}

; Function Attrs: mustprogress nounwind uwtable
define linkonce_odr hidden noundef i64 @_ZNK8TypeLong7get_conEv(ptr noundef nonnull align 8 dereferenceable(40) %0) #1 comdat align 2 {
  %2 = alloca ptr, align 8
  store ptr %0, ptr %2, align 8
  %3 = load ptr, ptr %2, align 8
  %4 = getelementptr inbounds %class.TypeLong, ptr %3, i32 0, i32 1
  %5 = load i64, ptr %4, align 8
  ret i64 %5
}

; Function Attrs: mustprogress nounwind uwtable
define linkonce_odr hidden noundef zeroext i1 @_ZNK8TypeLong6is_conEv(ptr noundef nonnull align 8 dereferenceable(40) %0) #1 comdat align 2 {
  %2 = alloca ptr, align 8
  store ptr %0, ptr %2, align 8
  %3 = load ptr, ptr %2, align 8
  %4 = getelementptr inbounds %class.TypeLong, ptr %3, i32 0, i32 1
  %5 = load i64, ptr %4, align 8
  %6 = getelementptr inbounds %class.TypeLong, ptr %3, i32 0, i32 2
  %7 = load i64, ptr %6, align 8
  %8 = icmp eq i64 %5, %7
  ret i1 %8
}

; Function Attrs: mustprogress nounwind uwtable
define linkonce_odr hidden noundef signext i16 @_Z4MAX2IsET_S0_S0_(i16 noundef signext %0, i16 noundef signext %1) #1 comdat {
  %3 = alloca i16, align 2
  %4 = alloca i16, align 2
  store i16 %0, ptr %3, align 2
  store i16 %1, ptr %4, align 2
  %5 = load i16, ptr %3, align 2
  %6 = sext i16 %5 to i32
  %7 = load i16, ptr %4, align 2
  %8 = sext i16 %7 to i32
  %9 = icmp sgt i32 %6, %8
  br i1 %9, label %10, label %12

10:                                               ; preds = %2
  %11 = load i16, ptr %3, align 2
  br label %14

12:                                               ; preds = %2
  %13 = load i16, ptr %4, align 2
  br label %14

14:                                               ; preds = %12, %10
  %15 = phi i16 [ %11, %10 ], [ %13, %12 ]
  ret i16 %15
}

; Function Attrs: mustprogress nounwind uwtable
define linkonce_odr hidden noundef ptr @_ZNK4Type7is_longEv(ptr noundef nonnull align 8 dereferenceable(20) %0) #1 comdat align 2 {
  %2 = alloca ptr, align 8
  store ptr %0, ptr %2, align 8
  %3 = load ptr, ptr %2, align 8
  ret ptr %3
}

; Function Attrs: mustprogress nounwind uwtable
define linkonce_odr hidden noundef ptr @_ZNK11PhaseValues4typeEPK4Node(ptr noundef nonnull align 8 dereferenceable(2400) %0, ptr noundef %1) #1 comdat align 2 {
  %3 = alloca ptr, align 8
  %4 = alloca ptr, align 8
  %5 = alloca ptr, align 8
  store ptr %0, ptr %3, align 8
  store ptr %1, ptr %4, align 8
  %6 = load ptr, ptr %3, align 8
  %7 = getelementptr inbounds %class.PhaseValues, ptr %6, i32 0, i32 3
  %8 = load ptr, ptr %7, align 8
  %9 = load ptr, ptr %4, align 8
  %10 = getelementptr inbounds %class.Node, ptr %9, i32 0, i32 7
  %11 = load i32, ptr %10, align 8
  %12 = call noundef ptr @_ZNK10Type_Array11fast_lookupEj(ptr noundef nonnull align 8 dereferenceable(24) %8, i32 noundef %11)
  store ptr %12, ptr %5, align 8
  %13 = load ptr, ptr %5, align 8
  ret ptr %13
}

; Function Attrs: mustprogress nounwind uwtable
define linkonce_odr hidden noundef ptr @_ZNK4Node2inEj(ptr noundef nonnull align 8 dereferenceable(52) %0, i32 noundef %1) #1 comdat align 2 {
  %3 = alloca ptr, align 8
  %4 = alloca i32, align 4
  store ptr %0, ptr %3, align 8
  store i32 %1, ptr %4, align 4
  %5 = load ptr, ptr %3, align 8
  %6 = getelementptr inbounds %class.Node, ptr %5, i32 0, i32 1
  %7 = load ptr, ptr %6, align 8
  %8 = load i32, ptr %4, align 4
  %9 = zext i32 %8 to i64
  %10 = getelementptr inbounds ptr, ptr %7, i64 %9
  %11 = load ptr, ptr %10, align 8
  ret ptr %11
}

; Function Attrs: mustprogress nounwind uwtable
define hidden noundef ptr @_ZNK8DivLNode5ValueEP8PhaseGVN(ptr noundef nonnull align 8 dereferenceable(52) %0, ptr noundef %1) unnamed_addr #1 align 2 {
  %3 = alloca ptr, align 8
  %4 = alloca ptr, align 8
  %5 = alloca ptr, align 8
  %6 = alloca ptr, align 8
  %7 = alloca ptr, align 8
  %8 = alloca ptr, align 8
  %9 = alloca ptr, align 8
  %10 = alloca ptr, align 8
  %11 = alloca i32, align 4
  %12 = alloca i64, align 8
  %13 = alloca i64, align 8
  %14 = alloca i64, align 8
  %15 = alloca i64, align 8
  store ptr %0, ptr %4, align 8
  store ptr %1, ptr %5, align 8
  %16 = load ptr, ptr %4, align 8
  %17 = load ptr, ptr %5, align 8
  %18 = call noundef ptr @_ZNK4Node2inEj(ptr noundef nonnull align 8 dereferenceable(52) %16, i32 noundef 1)
  %19 = call noundef ptr @_ZNK11PhaseValues4typeEPK4Node(ptr noundef nonnull align 8 dereferenceable(2400) %17, ptr noundef %18)
  store ptr %19, ptr %6, align 8
  %20 = load ptr, ptr %5, align 8
  %21 = call noundef ptr @_ZNK4Node2inEj(ptr noundef nonnull align 8 dereferenceable(52) %16, i32 noundef 2)
  %22 = call noundef ptr @_ZNK11PhaseValues4typeEPK4Node(ptr noundef nonnull align 8 dereferenceable(2400) %20, ptr noundef %21)
  store ptr %22, ptr %7, align 8
  %23 = load ptr, ptr %6, align 8
  %24 = load ptr, ptr @_ZN4Type3TOPE, align 8
  %25 = icmp eq ptr %23, %24
  br i1 %25, label %26, label %28

26:                                               ; preds = %2
  %27 = load ptr, ptr @_ZN4Type3TOPE, align 8
  store ptr %27, ptr %3, align 8
  br label %156

28:                                               ; preds = %2
  %29 = load ptr, ptr %7, align 8
  %30 = load ptr, ptr @_ZN4Type3TOPE, align 8
  %31 = icmp eq ptr %29, %30
  br i1 %31, label %32, label %34

32:                                               ; preds = %28
  %33 = load ptr, ptr @_ZN4Type3TOPE, align 8
  store ptr %33, ptr %3, align 8
  br label %156

34:                                               ; preds = %28
  %35 = call noundef ptr @_ZNK4Node2inEj(ptr noundef nonnull align 8 dereferenceable(52) %16, i32 noundef 1)
  %36 = call noundef ptr @_ZNK4Node2inEj(ptr noundef nonnull align 8 dereferenceable(52) %16, i32 noundef 2)
  %37 = icmp eq ptr %35, %36
  br i1 %37, label %38, label %40

38:                                               ; preds = %34
  %39 = load ptr, ptr @_ZN8TypeLong3ONEE, align 8
  store ptr %39, ptr %3, align 8
  br label %156

40:                                               ; preds = %34
  %41 = load ptr, ptr %16, align 8
  %42 = getelementptr inbounds ptr, ptr %41, i64 5
  %43 = load ptr, ptr %42, align 8
  %44 = call noundef ptr %43(ptr noundef nonnull align 8 dereferenceable(52) %16)
  store ptr %44, ptr %8, align 8
  %45 = load ptr, ptr %6, align 8
  %46 = load ptr, ptr %8, align 8
  %47 = icmp eq ptr %45, %46
  br i1 %47, label %60, label %48

48:                                               ; preds = %40
  %49 = load ptr, ptr %7, align 8
  %50 = load ptr, ptr %8, align 8
  %51 = icmp eq ptr %49, %50
  br i1 %51, label %60, label %52

52:                                               ; preds = %48
  %53 = load ptr, ptr %6, align 8
  %54 = load ptr, ptr @_ZN4Type6BOTTOME, align 8
  %55 = icmp eq ptr %53, %54
  br i1 %55, label %60, label %56

56:                                               ; preds = %52
  %57 = load ptr, ptr %7, align 8
  %58 = load ptr, ptr @_ZN4Type6BOTTOME, align 8
  %59 = icmp eq ptr %57, %58
  br i1 %59, label %60, label %62

60:                                               ; preds = %56, %52, %48, %40
  %61 = load ptr, ptr %8, align 8
  store ptr %61, ptr %3, align 8
  br label %156

62:                                               ; preds = %56
  %63 = load ptr, ptr %6, align 8
  %64 = call noundef ptr @_ZNK4Type7is_longEv(ptr noundef nonnull align 8 dereferenceable(20) %63)
  store ptr %64, ptr %9, align 8
  %65 = load ptr, ptr %7, align 8
  %66 = call noundef ptr @_ZNK4Type7is_longEv(ptr noundef nonnull align 8 dereferenceable(20) %65)
  store ptr %66, ptr %10, align 8
  %67 = load ptr, ptr %9, align 8
  %68 = getelementptr inbounds %class.TypeInteger, ptr %67, i32 0, i32 1
  %69 = load i16, ptr %68, align 4
  %70 = load ptr, ptr %10, align 8
  %71 = getelementptr inbounds %class.TypeInteger, ptr %70, i32 0, i32 1
  %72 = load i16, ptr %71, align 4
  %73 = call noundef signext i16 @_Z4MAX2IsET_S0_S0_(i16 noundef signext %69, i16 noundef signext %72)
  %74 = sext i16 %73 to i32
  store i32 %74, ptr %11, align 4
  %75 = load ptr, ptr %10, align 8
  %76 = call noundef zeroext i1 @_ZNK8TypeLong6is_conEv(ptr noundef nonnull align 8 dereferenceable(40) %75)
  br i1 %76, label %77, label %128

77:                                               ; preds = %62
  %78 = load ptr, ptr %10, align 8
  %79 = call noundef i64 @_ZNK8TypeLong7get_conEv(ptr noundef nonnull align 8 dereferenceable(40) %78)
  %80 = icmp ne i64 %79, 0
  br i1 %80, label %81, label %128

81:                                               ; preds = %77
  %82 = load ptr, ptr %10, align 8
  %83 = call noundef i64 @_ZNK8TypeLong7get_conEv(ptr noundef nonnull align 8 dereferenceable(40) %82)
  store i64 %83, ptr %12, align 8
  %84 = load i64, ptr %12, align 8
  %85 = icmp sge i64 %84, 0
  br i1 %85, label %86, label %97

86:                                               ; preds = %81
  %87 = load ptr, ptr %9, align 8
  %88 = getelementptr inbounds %class.TypeLong, ptr %87, i32 0, i32 1
  %89 = load i64, ptr %88, align 8
  %90 = load i64, ptr %12, align 8
  %91 = sdiv i64 %89, %90
  store i64 %91, ptr %13, align 8
  %92 = load ptr, ptr %9, align 8
  %93 = getelementptr inbounds %class.TypeLong, ptr %92, i32 0, i32 2
  %94 = load i64, ptr %93, align 8
  %95 = load i64, ptr %12, align 8
  %96 = sdiv i64 %94, %95
  store i64 %96, ptr %14, align 8
  br label %123

97:                                               ; preds = %81
  %98 = load i64, ptr %12, align 8
  %99 = icmp eq i64 %98, -1
  br i1 %99, label %100, label %111

100:                                              ; preds = %97
  %101 = load ptr, ptr %9, align 8
  %102 = getelementptr inbounds %class.TypeLong, ptr %101, i32 0, i32 1
  %103 = load i64, ptr %102, align 8
  %104 = icmp eq i64 %103, -9223372036854775808
  br i1 %104, label %105, label %111

105:                                              ; preds = %100
  store i64 -9223372036854775808, ptr %13, align 8
  %106 = load ptr, ptr %9, align 8
  %107 = getelementptr inbounds %class.TypeLong, ptr %106, i32 0, i32 2
  %108 = load i64, ptr %107, align 8
  %109 = icmp eq i64 %108, -9223372036854775808
  %110 = select i1 %109, i64 -9223372036854775808, i64 9223372036854775807
  store i64 %110, ptr %14, align 8
  br label %122

111:                                              ; preds = %100, %97
  %112 = load ptr, ptr %9, align 8
  %113 = getelementptr inbounds %class.TypeLong, ptr %112, i32 0, i32 2
  %114 = load i64, ptr %113, align 8
  %115 = load i64, ptr %12, align 8
  %116 = sdiv i64 %114, %115
  store i64 %116, ptr %13, align 8
  %117 = load ptr, ptr %9, align 8
  %118 = getelementptr inbounds %class.TypeLong, ptr %117, i32 0, i32 1
  %119 = load i64, ptr %118, align 8
  %120 = load i64, ptr %12, align 8
  %121 = sdiv i64 %119, %120
  store i64 %121, ptr %14, align 8
  br label %122

122:                                              ; preds = %111, %105
  br label %123

123:                                              ; preds = %122, %86
  %124 = load i64, ptr %13, align 8
  %125 = load i64, ptr %14, align 8
  %126 = load i32, ptr %11, align 4
  %127 = call noundef ptr @_ZN8TypeLong4makeElli(i64 noundef %124, i64 noundef %125, i32 noundef %126)
  store ptr %127, ptr %3, align 8
  br label %156

128:                                              ; preds = %77, %62
  %129 = load ptr, ptr %9, align 8
  %130 = call noundef zeroext i1 @_ZNK8TypeLong6is_conEv(ptr noundef nonnull align 8 dereferenceable(40) %129)
  br i1 %130, label %131, label %154

131:                                              ; preds = %128
  %132 = load ptr, ptr %9, align 8
  %133 = call noundef i64 @_ZNK8TypeLong7get_conEv(ptr noundef nonnull align 8 dereferenceable(40) %132)
  store i64 %133, ptr %15, align 8
  %134 = load i64, ptr %15, align 8
  %135 = icmp slt i64 %134, 0
  br i1 %135, label %136, label %148

136:                                              ; preds = %131
  %137 = load i64, ptr %15, align 8
  %138 = icmp eq i64 %137, -9223372036854775808
  br i1 %138, label %139, label %142

139:                                              ; preds = %136
  %140 = load i32, ptr %11, align 4
  %141 = call noundef ptr @_ZN8TypeLong4makeElli(i64 noundef -9223372036854775808, i64 noundef 4611686018427387904, i32 noundef %140)
  store ptr %141, ptr %3, align 8
  br label %156

142:                                              ; preds = %136
  %143 = load i64, ptr %15, align 8
  %144 = load i64, ptr %15, align 8
  %145 = sub nsw i64 0, %144
  %146 = load i32, ptr %11, align 4
  %147 = call noundef ptr @_ZN8TypeLong4makeElli(i64 noundef %143, i64 noundef %145, i32 noundef %146)
  store ptr %147, ptr %3, align 8
  br label %156

148:                                              ; preds = %131
  %149 = load i64, ptr %15, align 8
  %150 = sub nsw i64 0, %149
  %151 = load i64, ptr %15, align 8
  %152 = load i32, ptr %11, align 4
  %153 = call noundef ptr @_ZN8TypeLong4makeElli(i64 noundef %150, i64 noundef %151, i32 noundef %152)
  store ptr %153, ptr %3, align 8
  br label %156

154:                                              ; preds = %128
  %155 = load ptr, ptr @_ZN8TypeLong4LONGE, align 8
  store ptr %155, ptr %3, align 8
  br label %156

156:                                              ; preds = %154, %148, %142, %139, %123, %60, %38, %32, %26
  %157 = load ptr, ptr %3, align 8
  ret ptr %157
}