; Function Attrs: mustprogress nounwind uwtable
define hidden noundef ptr @_ZNK8DivLNode5ValueEP8PhaseGVN(ptr noundef nonnull align 8 dereferenceable(52) %0, ptr nocapture noundef readonly %1) unnamed_addr #0 align 2 {
  %3 = getelementptr inbounds i8, ptr %0, i64 8
  %4 = load ptr, ptr %3, align 8
  %5 = getelementptr inbounds i8, ptr %4, i64 8
  %6 = load ptr, ptr %5, align 8
  %7 = getelementptr inbounds i8, ptr %1, i64 40
  %8 = load ptr, ptr %7, align 8
  %9 = getelementptr inbounds i8, ptr %6, i64 40
  %10 = load i32, ptr %9, align 8
  %11 = getelementptr inbounds i8, ptr %8, i64 16
  %12 = load ptr, ptr %11, align 8
  %13 = zext i32 %10 to i64
  %14 = getelementptr inbounds ptr, ptr %12, i64 %13
  %15 = load ptr, ptr %14, align 8
  %16 = getelementptr inbounds i8, ptr %4, i64 16
  %17 = load ptr, ptr %16, align 8
  %18 = getelementptr inbounds i8, ptr %17, i64 40
  %19 = load i32, ptr %18, align 8
  %20 = zext i32 %19 to i64
  %21 = getelementptr inbounds ptr, ptr %12, i64 %20
  %22 = load ptr, ptr %21, align 8
  %23 = load ptr, ptr @_ZN4Type3TOPE, align 8
  %24 = icmp eq ptr %15, %23
  %25 = icmp eq ptr %22, %23
  %or.cond56 = or i1 %24, %25
  br i1 %or.cond56, label %96, label %26

26:                                               ; preds = %2
  %27 = icmp eq ptr %6, %17
  br i1 %27, label %28, label %30

28:                                               ; preds = %26
  %29 = load ptr, ptr @_ZN8TypeLong3ONEE, align 8
  br label %96

30:                                               ; preds = %26
  %31 = load ptr, ptr %0, align 8
  %32 = getelementptr inbounds i8, ptr %31, i64 40
  %33 = load ptr, ptr %32, align 8
  %34 = tail call noundef ptr %33(ptr noundef nonnull align 8 dereferenceable(52) %0) #8
  %35 = icmp eq ptr %15, %34
  %36 = icmp eq ptr %22, %34
  %or.cond = or i1 %35, %36
  br i1 %or.cond, label %96, label %37

37:                                               ; preds = %30
  %38 = load ptr, ptr @_ZN4Type6BOTTOME, align 8
  %39 = icmp eq ptr %15, %38
  %40 = icmp eq ptr %22, %38
  %or.cond55 = or i1 %39, %40
  br i1 %or.cond55, label %96, label %41

41:                                               ; preds = %37
  %42 = getelementptr inbounds i8, ptr %15, i64 20
  %43 = load i16, ptr %42, align 4
  %44 = getelementptr inbounds i8, ptr %22, i64 20
  %45 = load i16, ptr %44, align 4
  %46 = tail call noundef i16 @llvm.smax.i16(i16 %43, i16 %45)
  %47 = sext i16 %46 to i32
  %48 = getelementptr inbounds i8, ptr %22, i64 24
  %49 = load i64, ptr %48, align 8
  %50 = getelementptr inbounds i8, ptr %22, i64 32
  %51 = load i64, ptr %50, align 8
  %52 = icmp ne i64 %49, %51
  %.not = icmp eq i64 %49, 0
  %or.cond57 = or i1 %.not, %52
  br i1 %or.cond57, label %76, label %53

53:                                               ; preds = %41
  %54 = icmp sgt i64 %49, -1
  br i1 %54, label %55, label %62

55:                                               ; preds = %53
  %56 = getelementptr inbounds i8, ptr %15, i64 24
  %57 = load i64, ptr %56, align 8
  %58 = sdiv i64 %57, %49
  %59 = getelementptr inbounds i8, ptr %15, i64 32
  %60 = load i64, ptr %59, align 8
  %61 = sdiv i64 %60, %49
  br label %74

62:                                               ; preds = %53
  %63 = icmp eq i64 %49, -1
  %64 = getelementptr inbounds i8, ptr %15, i64 24
  %65 = load i64, ptr %64, align 8
  %66 = icmp eq i64 %65, -9223372036854775808
  %or.cond58 = select i1 %63, i1 %66, i1 false
  %67 = getelementptr inbounds i8, ptr %15, i64 32
  %68 = load i64, ptr %67, align 8
  br i1 %or.cond58, label %69, label %._crit_edge

69:                                               ; preds = %62
  %70 = icmp eq i64 %68, -9223372036854775808
  %71 = select i1 %70, i64 -9223372036854775808, i64 9223372036854775807
  br label %74

._crit_edge:                                      ; preds = %62
  %72 = sdiv i64 %68, %49
  %73 = sdiv i64 %65, %49
  br label %74

74:                                               ; preds = %69, %._crit_edge, %55
  %.046 = phi i64 [ %58, %55 ], [ -9223372036854775808, %69 ], [ %72, %._crit_edge ]
  %.045 = phi i64 [ %61, %55 ], [ %71, %69 ], [ %73, %._crit_edge ]
  %75 = tail call noundef ptr @_ZN8TypeLong4makeElli(i64 noundef %.046, i64 noundef %.045, i32 noundef %47) #8
  br label %96

76:                                               ; preds = %41
  %77 = getelementptr inbounds i8, ptr %15, i64 24
  %78 = load i64, ptr %77, align 8
  %79 = getelementptr inbounds i8, ptr %15, i64 32
  %80 = load i64, ptr %79, align 8
  %81 = icmp eq i64 %78, %80
  br i1 %81, label %82, label %94

82:                                               ; preds = %76
  %83 = icmp slt i64 %78, 0
  br i1 %83, label %84, label %91

84:                                               ; preds = %82
  %85 = icmp eq i64 %78, -9223372036854775808
  br i1 %85, label %86, label %88

86:                                               ; preds = %84
  %87 = tail call noundef ptr @_ZN8TypeLong4makeElli(i64 noundef -9223372036854775808, i64 noundef 4611686018427387904, i32 noundef %47) #8
  br label %96

88:                                               ; preds = %84
  %89 = sub nsw i64 0, %78
  %90 = tail call noundef ptr @_ZN8TypeLong4makeElli(i64 noundef %78, i64 noundef %89, i32 noundef %47) #8
  br label %96

91:                                               ; preds = %82
  %92 = sub nsw i64 0, %78
  %93 = tail call noundef ptr @_ZN8TypeLong4makeElli(i64 noundef %92, i64 noundef %78, i32 noundef %47) #8
  br label %96

94:                                               ; preds = %76
  %95 = load ptr, ptr @_ZN8TypeLong4LONGE, align 8
  br label %96

96:                                               ; preds = %30, %37, %2, %94, %91, %88, %86, %74, %28
  %.0 = phi ptr [ %29, %28 ], [ %75, %74 ], [ %87, %86 ], [ %90, %88 ], [ %93, %91 ], [ %95, %94 ], [ %23, %2 ], [ %34, %37 ], [ %34, %30 ]
  ret ptr %.0
}